target datalayout = "e-m:e-p270:32:32-p271:32:32-p272:64:64-i64:64-i128:128-f80:128-n8:16:32:64-S128"
target triple = "x86_64-pc-linux-gnu"

%"struct.Luau::CodeGen::BytecodeTypes" = type { i8, i8, i8, i8 }

@.str.155 = private unnamed_addr constant [3 x i8] c", \00", align 1
@.str.170 = private unnamed_addr constant [9 x i8] c"userdata\00", align 1
@.str.171 = private unnamed_addr constant [4 x i8] c"nil\00", align 1
@.str.172 = private unnamed_addr constant [8 x i8] c"boolean\00", align 1
@.str.173 = private unnamed_addr constant [7 x i8] c"number\00", align 1
@.str.174 = private unnamed_addr constant [7 x i8] c"string\00", align 1
@.str.175 = private unnamed_addr constant [6 x i8] c"table\00", align 1
@.str.176 = private unnamed_addr constant [9 x i8] c"function\00", align 1
@.str.177 = private unnamed_addr constant [7 x i8] c"thread\00", align 1
@.str.178 = private unnamed_addr constant [7 x i8] c"vector\00", align 1
@.str.179 = private unnamed_addr constant [7 x i8] c"buffer\00", align 1
@.str.180 = private unnamed_addr constant [4 x i8] c"any\00", align 1
@.str.181 = private unnamed_addr constant [5 x i8] c"%s%s\00", align 1
@.str.182 = private unnamed_addr constant [2 x i8] c"?\00", align 1
@.str.183 = private unnamed_addr constant [1 x i8] zeroinitializer, align 1
@.str.184 = private unnamed_addr constant [5 x i8] c" <- \00", align 1

; Function Attrs: mustprogress nounwind uwtable
define dso_local noundef ptr @_ZN4Luau7CodeGen19getBytecodeTypeNameEhPKPKc(i8 noundef zeroext %0, ptr noundef %1) #0 {
  %3 = alloca ptr, align 8
  %4 = alloca i8, align 1
  %5 = alloca ptr, align 8
  store i8 %0, ptr %4, align 1, !tbaa !35
  store ptr %1, ptr %5, align 8, !tbaa !85
  %6 = load i8, ptr %4, align 1, !tbaa !35
  %7 = zext i8 %6 to i32
  %8 = and i32 %7, -129
  %9 = trunc i32 %8 to i8
  store i8 %9, ptr %4, align 1, !tbaa !35
  %10 = load i8, ptr %4, align 1, !tbaa !35
  %11 = zext i8 %10 to i32
  %12 = icmp sge i32 %11, 64
  br i1 %12, label %13, label %29

13:                                               ; preds = %2
  %14 = load i8, ptr %4, align 1, !tbaa !35
  %15 = zext i8 %14 to i32
  %16 = icmp slt i32 %15, 96
  br i1 %16, label %17, label %29

17:                                               ; preds = %13
  %18 = load ptr, ptr %5, align 8, !tbaa !85
  %19 = icmp ne ptr %18, null
  br i1 %19, label %20, label %28

20:                                               ; preds = %17
  %21 = load ptr, ptr %5, align 8, !tbaa !85
  %22 = load i8, ptr %4, align 1, !tbaa !35
  %23 = zext i8 %22 to i32
  %24 = sub nsw i32 %23, 64
  %25 = sext i32 %24 to i64
  %26 = getelementptr inbounds ptr, ptr %21, i64 %25
  %27 = load ptr, ptr %26, align 8, !tbaa !37
  store ptr %27, ptr %3, align 8
  br label %44

28:                                               ; preds = %17
  store ptr @.str.170, ptr %3, align 8
  br label %44

29:                                               ; preds = %13, %2
  %30 = load i8, ptr %4, align 1, !tbaa !35
  %31 = zext i8 %30 to i32
  switch i32 %31, label %43 [
    i32 0, label %32
    i32 1, label %33
    i32 2, label %34
    i32 3, label %35
    i32 4, label %36
    i32 5, label %37
    i32 6, label %38
    i32 7, label %39
    i32 8, label %40
    i32 9, label %41
    i32 15, label %42
  ]

32:                                               ; preds = %29
  store ptr @.str.171, ptr %3, align 8
  br label %44

33:                                               ; preds = %29
  store ptr @.str.172, ptr %3, align 8
  br label %44

34:                                               ; preds = %29
  store ptr @.str.173, ptr %3, align 8
  br label %44

35:                                               ; preds = %29
  store ptr @.str.174, ptr %3, align 8
  br label %44

36:                                               ; preds = %29
  store ptr @.str.175, ptr %3, align 8
  br label %44

37:                                               ; preds = %29
  store ptr @.str.176, ptr %3, align 8
  br label %44

38:                                               ; preds = %29
  store ptr @.str.177, ptr %3, align 8
  br label %44

39:                                               ; preds = %29
  store ptr @.str.170, ptr %3, align 8
  br label %44

40:                                               ; preds = %29
  store ptr @.str.178, ptr %3, align 8
  br label %44

41:                                               ; preds = %29
  store ptr @.str.179, ptr %3, align 8
  br label %44

42:                                               ; preds = %29
  store ptr @.str.180, ptr %3, align 8
  br label %44

43:                                               ; preds = %29
  store ptr null, ptr %3, align 8
  br label %44

44:                                               ; preds = %43, %42, %41, %40, %39, %38, %37, %36, %35, %34, %33, %32, %28, %20
  %45 = load ptr, ptr %3, align 8
  ret ptr %45
}

; Function Attrs: mustprogress uwtable
define dso_local void @_ZN4Luau7CodeGen8toStringERNSt7__cxx1112basic_stringIcSt11char_traitsIcESaIcEEERKNS0_13BytecodeTypesEPKPKc(ptr noundef nonnull align 8 dereferenceable(32) %0, ptr noundef nonnull align 1 dereferenceable(4) %1, ptr noundef %2) #1 {
  %4 = alloca ptr, align 8
  %5 = alloca ptr, align 8
  %6 = alloca ptr, align 8
  store ptr %0, ptr %4, align 8, !tbaa !36
  store ptr %1, ptr %5, align 8, !tbaa !87
  store ptr %2, ptr %6, align 8, !tbaa !85
  %7 = load ptr, ptr %4, align 8, !tbaa !36
  %8 = load ptr, ptr %5, align 8, !tbaa !87
  %9 = getelementptr inbounds nuw %"struct.Luau::CodeGen::BytecodeTypes", ptr %8, i32 0, i32 0
  %10 = load i8, ptr %9, align 1, !tbaa !89
  %11 = load ptr, ptr %6, align 8, !tbaa !85
  %12 = call noundef ptr @_ZN4Luau7CodeGen19getBytecodeTypeNameEhPKPKc(i8 noundef zeroext %10, ptr noundef %11)
  %13 = load ptr, ptr %5, align 8, !tbaa !87
  %14 = getelementptr inbounds nuw %"struct.Luau::CodeGen::BytecodeTypes", ptr %13, i32 0, i32 0
  %15 = load i8, ptr %14, align 1, !tbaa !89
  %16 = zext i8 %15 to i32
  %17 = and i32 %16, 128
  %18 = icmp ne i32 %17, 0
  %19 = select i1 %18, ptr @.str.182, ptr @.str.183
  call void (ptr, ptr, ...) @_ZN4Luau7CodeGenL6appendERNSt7__cxx1112basic_stringIcSt11char_traitsIcESaIcEEEPKcz(ptr noundef nonnull align 8 dereferenceable(32) %7, ptr noundef @.str.181, ptr noundef %12, ptr noundef %19)
  %20 = load ptr, ptr %4, align 8, !tbaa !36
  call void (ptr, ptr, ...) @_ZN4Luau7CodeGenL6appendERNSt7__cxx1112basic_stringIcSt11char_traitsIcESaIcEEEPKcz(ptr noundef nonnull align 8 dereferenceable(32) %20, ptr noundef @.str.184)
  %21 = load ptr, ptr %4, align 8, !tbaa !36
  %22 = load ptr, ptr %5, align 8, !tbaa !87
  %23 = getelementptr inbounds nuw %"struct.Luau::CodeGen::BytecodeTypes", ptr %22, i32 0, i32 1
  %24 = load i8, ptr %23, align 1, !tbaa !91
  %25 = load ptr, ptr %6, align 8, !tbaa !85
  %26 = call noundef ptr @_ZN4Luau7CodeGen19getBytecodeTypeNameEhPKPKc(i8 noundef zeroext %24, ptr noundef %25)
  %27 = load ptr, ptr %5, align 8, !tbaa !87
  %28 = getelementptr inbounds nuw %"struct.Luau::CodeGen::BytecodeTypes", ptr %27, i32 0, i32 1
  %29 = load i8, ptr %28, align 1, !tbaa !91
  %30 = zext i8 %29 to i32
  %31 = and i32 %30, 128
  %32 = icmp ne i32 %31, 0
  %33 = select i1 %32, ptr @.str.182, ptr @.str.183
  call void (ptr, ptr, ...) @_ZN4Luau7CodeGenL6appendERNSt7__cxx1112basic_stringIcSt11char_traitsIcESaIcEEEPKcz(ptr noundef nonnull align 8 dereferenceable(32) %21, ptr noundef @.str.181, ptr noundef %26, ptr noundef %33)
  %34 = load ptr, ptr %4, align 8, !tbaa !36
  call void (ptr, ptr, ...) @_ZN4Luau7CodeGenL6appendERNSt7__cxx1112basic_stringIcSt11char_traitsIcESaIcEEEPKcz(ptr noundef nonnull align 8 dereferenceable(32) %34, ptr noundef @.str.155)
  %35 = load ptr, ptr %4, align 8, !tbaa !36
  %36 = load ptr, ptr %5, align 8, !tbaa !87
  %37 = getelementptr inbounds nuw %"struct.Luau::CodeGen::BytecodeTypes", ptr %36, i32 0, i32 2
  %38 = load i8, ptr %37, align 1, !tbaa !92
  %39 = load ptr, ptr %6, align 8, !tbaa !85
  %40 = call noundef ptr @_ZN4Luau7CodeGen19getBytecodeTypeNameEhPKPKc(i8 noundef zeroext %38, ptr noundef %39)
  %41 = load ptr, ptr %5, align 8, !tbaa !87
  %42 = getelementptr inbounds nuw %"struct.Luau::CodeGen::BytecodeTypes", ptr %41, i32 0, i32 2
  %43 = load i8, ptr %42, align 1, !tbaa !92
  %44 = zext i8 %43 to i32
  %45 = and i32 %44, 128
  %46 = icmp ne i32 %45, 0
  %47 = select i1 %46, ptr @.str.182, ptr @.str.183
  call void (ptr, ptr, ...) @_ZN4Luau7CodeGenL6appendERNSt7__cxx1112basic_stringIcSt11char_traitsIcESaIcEEEPKcz(ptr noundef nonnull align 8 dereferenceable(32) %35, ptr noundef @.str.181, ptr noundef %40, ptr noundef %47)
  %48 = load ptr, ptr %5, align 8, !tbaa !87
  %49 = getelementptr inbounds nuw %"struct.Luau::CodeGen::BytecodeTypes", ptr %48, i32 0, i32 3
  %50 = load i8, ptr %49, align 1, !tbaa !93
  %51 = zext i8 %50 to i32
  %52 = icmp ne i32 %51, 15
  br i1 %52, label %53, label %68

53:                                               ; preds = %3
  %54 = load ptr, ptr %4, align 8, !tbaa !36
  call void (ptr, ptr, ...) @_ZN4Luau7CodeGenL6appendERNSt7__cxx1112basic_stringIcSt11char_traitsIcESaIcEEEPKcz(ptr noundef nonnull align 8 dereferenceable(32) %54, ptr noundef @.str.155)
  %55 = load ptr, ptr %4, align 8, !tbaa !36
  %56 = load ptr, ptr %5, align 8, !tbaa !87
  %57 = getelementptr inbounds nuw %"struct.Luau::CodeGen::BytecodeTypes", ptr %56, i32 0, i32 3
  %58 = load i8, ptr %57, align 1, !tbaa !93
  %59 = load ptr, ptr %6, align 8, !tbaa !85
  %60 = call noundef ptr @_ZN4Luau7CodeGen19getBytecodeTypeNameEhPKPKc(i8 noundef zeroext %58, ptr noundef %59)
  %61 = load ptr, ptr %5, align 8, !tbaa !87
  %62 = getelementptr inbounds nuw %"struct.Luau::CodeGen::BytecodeTypes", ptr %61, i32 0, i32 3
  %63 = load i8, ptr %62, align 1, !tbaa !93
  %64 = zext i8 %63 to i32
  %65 = and i32 %64, 128
  %66 = icmp ne i32 %65, 0
  %67 = select i1 %66, ptr @.str.182, ptr @.str.183
  call void (ptr, ptr, ...) @_ZN4Luau7CodeGenL6appendERNSt7__cxx1112basic_stringIcSt11char_traitsIcESaIcEEEPKcz(ptr noundef nonnull align 8 dereferenceable(32) %55, ptr noundef @.str.181, ptr noundef %60, ptr noundef %67)
  br label %68

68:                                               ; preds = %53, %3
  ret void
}