; Function Attrs: mustprogress uwtable
define dso_local void @_ZN4Luau7CodeGen8toStringERNSt7__cxx1112basic_stringIcSt11char_traitsIcESaIcEEERKNS0_13BytecodeTypesEPKPKc(ptr noundef nonnull align 8 dereferenceable(32) %0, ptr noundef nonnull readonly align 1 captures(none) dereferenceable(4) %1, ptr noundef readonly %2) local_unnamed_addr #1 {
  %4 = load i8, ptr %1, align 1, !tbaa !63
  %5 = and i8 %4, 96
  %or.cond.i = icmp eq i8 %5, 64
  br i1 %or.cond.i, label %6, label %12

6:                                                ; preds = %3
  %.not.i = icmp eq ptr %2, null
  br i1 %.not.i, label %_ZN4Luau7CodeGen19getBytecodeTypeNameEhPKPKc.exit, label %7

7:                                                ; preds = %6
  %8 = and i8 %4, 31
  %9 = zext nneg i8 %8 to i64
  %10 = getelementptr inbounds nuw ptr, ptr %2, i64 %9
  %11 = load ptr, ptr %10, align 8, !tbaa !42
  br label %_ZN4Luau7CodeGen19getBytecodeTypeNameEhPKPKc.exit

12:                                               ; preds = %3
  %13 = and i8 %4, 127
  %14 = icmp samesign ult i8 %13, 16
  br i1 %14, label %switch.lookup, label %_ZN4Luau7CodeGen19getBytecodeTypeNameEhPKPKc.exit

switch.lookup:                                    ; preds = %12
  %15 = zext nneg i8 %13 to i64
  %switch.gep = getelementptr inbounds nuw [16 x ptr], ptr @switch.table._ZN4Luau7CodeGen8toStringERNSt7__cxx1112basic_stringIcSt11char_traitsIcESaIcEEERKNS0_13BytecodeTypesEPKPKc.8, i64 0, i64 %15
  %switch.load = load ptr, ptr %switch.gep, align 8
  br label %_ZN4Luau7CodeGen19getBytecodeTypeNameEhPKPKc.exit

_ZN4Luau7CodeGen19getBytecodeTypeNameEhPKPKc.exit: ; preds = %12, %switch.lookup, %6, %7
  %.0.i = phi ptr [ %11, %7 ], [ @.str.170, %6 ], [ %switch.load, %switch.lookup ], [ null, %12 ]
  %.not = icmp sgt i8 %4, -1
  %16 = select i1 %.not, ptr @.str.183, ptr @.str.182
  tail call void (ptr, ptr, ...) @_ZN4Luau7CodeGenL6appendERNSt7__cxx1112basic_stringIcSt11char_traitsIcESaIcEEEPKcz(ptr noundef nonnull align 8 dereferenceable(32) %0, ptr noundef nonnull @.str.181, ptr noundef %.0.i, ptr noundef nonnull %16)
  tail call void (ptr, ptr, ...) @_ZN4Luau7CodeGenL6appendERNSt7__cxx1112basic_stringIcSt11char_traitsIcESaIcEEEPKcz(ptr noundef nonnull align 8 dereferenceable(32) %0, ptr noundef nonnull @.str.184)
  %17 = getelementptr inbounds nuw i8, ptr %1, i64 1
  %18 = load i8, ptr %17, align 1, !tbaa !65
  %19 = and i8 %18, 96
  %or.cond.i24 = icmp eq i8 %19, 64
  br i1 %or.cond.i24, label %20, label %26

20:                                               ; preds = %_ZN4Luau7CodeGen19getBytecodeTypeNameEhPKPKc.exit
  %.not.i26 = icmp eq ptr %2, null
  br i1 %.not.i26, label %_ZN4Luau7CodeGen19getBytecodeTypeNameEhPKPKc.exit27, label %21

21:                                               ; preds = %20
  %22 = and i8 %18, 31
  %23 = zext nneg i8 %22 to i64
  %24 = getelementptr inbounds nuw ptr, ptr %2, i64 %23
  %25 = load ptr, ptr %24, align 8, !tbaa !42
  br label %_ZN4Luau7CodeGen19getBytecodeTypeNameEhPKPKc.exit27

26:                                               ; preds = %_ZN4Luau7CodeGen19getBytecodeTypeNameEhPKPKc.exit
  %27 = and i8 %18, 127
  %28 = icmp samesign ult i8 %27, 16
  br i1 %28, label %switch.lookup36, label %_ZN4Luau7CodeGen19getBytecodeTypeNameEhPKPKc.exit27

switch.lookup36:                                  ; preds = %26
  %29 = zext nneg i8 %27 to i64
  %switch.gep37 = getelementptr inbounds nuw [16 x ptr], ptr @switch.table._ZN4Luau7CodeGen8toStringERNSt7__cxx1112basic_stringIcSt11char_traitsIcESaIcEEERKNS0_13BytecodeTypesEPKPKc.8, i64 0, i64 %29
  %switch.load38 = load ptr, ptr %switch.gep37, align 8
  br label %_ZN4Luau7CodeGen19getBytecodeTypeNameEhPKPKc.exit27

_ZN4Luau7CodeGen19getBytecodeTypeNameEhPKPKc.exit27: ; preds = %26, %switch.lookup36, %20, %21
  %.0.i25 = phi ptr [ %25, %21 ], [ @.str.170, %20 ], [ %switch.load38, %switch.lookup36 ], [ null, %26 ]
  %.not20 = icmp sgt i8 %18, -1
  %30 = select i1 %.not20, ptr @.str.183, ptr @.str.182
  tail call void (ptr, ptr, ...) @_ZN4Luau7CodeGenL6appendERNSt7__cxx1112basic_stringIcSt11char_traitsIcESaIcEEEPKcz(ptr noundef nonnull align 8 dereferenceable(32) %0, ptr noundef nonnull @.str.181, ptr noundef %.0.i25, ptr noundef nonnull %30)
  tail call void (ptr, ptr, ...) @_ZN4Luau7CodeGenL6appendERNSt7__cxx1112basic_stringIcSt11char_traitsIcESaIcEEEPKcz(ptr noundef nonnull align 8 dereferenceable(32) %0, ptr noundef nonnull @.str.155)
  %31 = getelementptr inbounds nuw i8, ptr %1, i64 2
  %32 = load i8, ptr %31, align 1, !tbaa !66
  %33 = and i8 %32, 96
  %or.cond.i28 = icmp eq i8 %33, 64
  br i1 %or.cond.i28, label %34, label %40

34:                                               ; preds = %_ZN4Luau7CodeGen19getBytecodeTypeNameEhPKPKc.exit27
  %.not.i30 = icmp eq ptr %2, null
  br i1 %.not.i30, label %_ZN4Luau7CodeGen19getBytecodeTypeNameEhPKPKc.exit31, label %35

35:                                               ; preds = %34
  %36 = and i8 %32, 31
  %37 = zext nneg i8 %36 to i64
  %38 = getelementptr inbounds nuw ptr, ptr %2, i64 %37
  %39 = load ptr, ptr %38, align 8, !tbaa !42
  br label %_ZN4Luau7CodeGen19getBytecodeTypeNameEhPKPKc.exit31

40:                                               ; preds = %_ZN4Luau7CodeGen19getBytecodeTypeNameEhPKPKc.exit27
  %41 = and i8 %32, 127
  %42 = icmp samesign ult i8 %41, 16
  br i1 %42, label %switch.lookup39, label %_ZN4Luau7CodeGen19getBytecodeTypeNameEhPKPKc.exit31

switch.lookup39:                                  ; preds = %40
  %43 = zext nneg i8 %41 to i64
  %switch.gep40 = getelementptr inbounds nuw [16 x ptr], ptr @switch.table._ZN4Luau7CodeGen8toStringERNSt7__cxx1112basic_stringIcSt11char_traitsIcESaIcEEERKNS0_13BytecodeTypesEPKPKc.8, i64 0, i64 %43
  %switch.load41 = load ptr, ptr %switch.gep40, align 8
  br label %_ZN4Luau7CodeGen19getBytecodeTypeNameEhPKPKc.exit31

_ZN4Luau7CodeGen19getBytecodeTypeNameEhPKPKc.exit31: ; preds = %40, %switch.lookup39, %34, %35
  %.0.i29 = phi ptr [ %39, %35 ], [ @.str.170, %34 ], [ %switch.load41, %switch.lookup39 ], [ null, %40 ]
  %.not21 = icmp sgt i8 %32, -1
  %44 = select i1 %.not21, ptr @.str.183, ptr @.str.182
  tail call void (ptr, ptr, ...) @_ZN4Luau7CodeGenL6appendERNSt7__cxx1112basic_stringIcSt11char_traitsIcESaIcEEEPKcz(ptr noundef nonnull align 8 dereferenceable(32) %0, ptr noundef nonnull @.str.181, ptr noundef %.0.i29, ptr noundef nonnull %44)
  %45 = getelementptr inbounds nuw i8, ptr %1, i64 3
  %46 = load i8, ptr %45, align 1, !tbaa !67
  %.not22 = icmp eq i8 %46, 15
  br i1 %.not22, label %61, label %47

47:                                               ; preds = %_ZN4Luau7CodeGen19getBytecodeTypeNameEhPKPKc.exit31
  tail call void (ptr, ptr, ...) @_ZN4Luau7CodeGenL6appendERNSt7__cxx1112basic_stringIcSt11char_traitsIcESaIcEEEPKcz(ptr noundef nonnull align 8 dereferenceable(32) %0, ptr noundef nonnull @.str.155)
  %48 = load i8, ptr %45, align 1, !tbaa !67
  %49 = and i8 %48, 96
  %or.cond.i32 = icmp eq i8 %49, 64
  br i1 %or.cond.i32, label %50, label %56

50:                                               ; preds = %47
  %.not.i34 = icmp eq ptr %2, null
  br i1 %.not.i34, label %_ZN4Luau7CodeGen19getBytecodeTypeNameEhPKPKc.exit35, label %51

51:                                               ; preds = %50
  %52 = and i8 %48, 31
  %53 = zext nneg i8 %52 to i64
  %54 = getelementptr inbounds nuw ptr, ptr %2, i64 %53
  %55 = load ptr, ptr %54, align 8, !tbaa !42
  br label %_ZN4Luau7CodeGen19getBytecodeTypeNameEhPKPKc.exit35

56:                                               ; preds = %47
  %57 = and i8 %48, 127
  %58 = icmp samesign ult i8 %57, 16
  br i1 %58, label %switch.lookup42, label %_ZN4Luau7CodeGen19getBytecodeTypeNameEhPKPKc.exit35

switch.lookup42:                                  ; preds = %56
  %59 = zext nneg i8 %57 to i64
  %switch.gep43 = getelementptr inbounds nuw [16 x ptr], ptr @switch.table._ZN4Luau7CodeGen8toStringERNSt7__cxx1112basic_stringIcSt11char_traitsIcESaIcEEERKNS0_13BytecodeTypesEPKPKc.8, i64 0, i64 %59
  %switch.load44 = load ptr, ptr %switch.gep43, align 8
  br label %_ZN4Luau7CodeGen19getBytecodeTypeNameEhPKPKc.exit35

_ZN4Luau7CodeGen19getBytecodeTypeNameEhPKPKc.exit35: ; preds = %56, %switch.lookup42, %50, %51
  %.0.i33 = phi ptr [ %55, %51 ], [ @.str.170, %50 ], [ %switch.load44, %switch.lookup42 ], [ null, %56 ]
  %.not23 = icmp sgt i8 %48, -1
  %60 = select i1 %.not23, ptr @.str.183, ptr @.str.182
  tail call void (ptr, ptr, ...) @_ZN4Luau7CodeGenL6appendERNSt7__cxx1112basic_stringIcSt11char_traitsIcESaIcEEEPKcz(ptr noundef nonnull align 8 dereferenceable(32) %0, ptr noundef nonnull @.str.181, ptr noundef %.0.i33, ptr noundef nonnull %60)
  br label %61

61:                                               ; preds = %_ZN4Luau7CodeGen19getBytecodeTypeNameEhPKPKc.exit35, %_ZN4Luau7CodeGen19getBytecodeTypeNameEhPKPKc.exit31
  ret void
}